; Function Attrs: mustprogress uwtable
define dso_local void @_ZN9OutputMgr11output_tab_ERSoi(ptr noundef nonnull align 8 dereferenceable(8) %0, i32 noundef %1) local_unnamed_addr #4 align 2 {
  %.not1 = icmp eq i32 %1, 0
  br i1 %.not1, label %._crit_edge, label %.lr.ph

.lr.ph:                                           ; preds = %2, %.lr.ph
  %.02 = phi i32 [ %3, %.lr.ph ], [ %1, %2 ]
  %3 = add nsw i32 %.02, -1
  %4 = tail call noundef nonnull align 8 dereferenceable(8) ptr @_ZStlsISt11char_traitsIcEERSt13basic_ostreamIcT_ES5_PKc(ptr noundef nonnull align 8 dereferenceable(8) %0, ptr noundef nonnull @.str.55)
  %.not = icmp eq i32 %3, 0
  br i1 %.not, label %._crit_edge, label %.lr.ph, !llvm.loop !9

._crit_edge:                                      ; preds = %.lr.ph, %2
  ret void
}